Certificate:
    Data:
        Version: 3 (0x2)
        Serial Number: 17030965136099402759 (0xec5a248eaf446407)
    Signature Algorithm: sha1WithRSAEncryption
        Issuer: C=US, ST=Califorya, O=Riemann, OU=Test, CN=Riemann root CA
        Validity
            Not Before: May 30 19:11:04 2013 GMT
            Not After : May 30 19:11:04 2014 GMT
        Subject: C=US, ST=Califorya, L=San Francisco, O=Riemann, OU=Test, CN=Riemann client
        Subject Public Key Info:
            Public Key Algorithm: rsaEncryption
                Public-Key: (4096 bit)
                Modulus:
                    00:d6:ee:e7:ac:82:fe:89:96:d8:41:1a:7c:ff:56:
                    bd:f4:f0:d6:d8:11:fc:35:89:a2:c4:c2:0a:39:d1:
                    c5:c5:c8:86:12:76:f6:f1:9a:9b:75:6b:35:76:58:
                    78:b3:f0:c5:d0:72:f7:98:a7:4c:83:ed:99:27:06:
                    5f:d2:3f:88:79:80:7b:61:d6:fa:d9:0d:84:a7:94:
                    9b:6c:61:3b:e3:7a:a4:49:7f:e8:56:74:32:29:78:
                    58:83:78:00:2e:e8:a7:12:98:87:10:7f:da:90:2f:
                    13:26:4a:06:89:21:0c:85:d0:de:13:b6:e3:ca:e5:
                    38:b7:bb:54:e5:ee:ca:14:eb:0c:89:44:c8:f3:3a:
                    c2:f8:5f:58:8c:e8:3a:00:ef:2f:d6:2e:4a:33:67:
                    d1:4e:9b:71:36:4e:0e:7e:eb:c3:87:30:49:a4:95:
                    0c:2f:0d:8a:0e:5e:a9:a1:12:5f:4b:74:29:c0:c1:
                    b3:42:fa:59:6c:ec:75:66:6f:09:d7:44:04:9d:5b:
                    a5:fd:73:29:6c:d9:7d:d6:59:3d:c0:f7:16:6c:66:
                    c1:e0:f2:44:59:4a:33:a0:c5:c2:5d:4e:53:dd:dc:
                    23:44:32:67:1b:59:5e:91:c9:2d:7b:bd:09:e5:55:
                    8c:4b:15:eb:66:d3:39:89:37:58:e7:04:6f:21:49:
                    c2:c7:7c:05:54:ef:bc:95:b0:3d:87:5d:7f:f5:1c:
                    24:59:53:e1:33:e0:fe:91:d2:df:dd:f2:28:a4:8f:
                    2b:e3:d6:75:f8:85:02:a5:77:34:a8:cf:be:94:ac:
                    45:8d:df:15:ca:1a:40:31:c6:be:11:1e:eb:cd:c6:
                    fa:3e:a1:76:f6:e3:79:10:e0:44:b3:65:69:e9:7f:
                    17:63:6f:6a:c0:c8:f7:f9:39:ea:33:ca:38:70:0f:
                    42:1e:df:a8:27:92:a2:c0:72:a2:5f:d2:ba:cd:62:
                    8b:6c:06:3a:3e:5e:8f:f0:0b:73:71:05:42:61:60:
                    7e:4a:fd:19:52:8c:42:c0:02:c9:98:2b:24:26:4f:
                    8c:e4:97:d5:b7:84:cb:7c:69:70:65:bd:2a:fa:7a:
                    3d:e5:e0:9c:01:8a:2b:0d:b0:45:cb:0e:14:89:f5:
                    97:71:38:e4:fe:f1:1a:02:47:4d:ac:96:5c:18:2f:
                    cb:07:f1:47:f8:50:be:ad:5e:e6:01:61:73:2f:56:
                    94:6c:bf:86:18:04:b8:2a:45:dd:cd:8a:14:a5:cc:
                    cf:be:66:a0:8b:ed:12:ce:16:ac:0d:e6:af:c9:74:
                    65:9d:e9:53:cc:c5:ff:75:5f:a4:e1:d5:38:85:b0:
                    7f:24:3a:fb:67:b7:7c:e0:44:1c:dc:a6:5a:4d:af:
                    65:98:41
                Exponent: 65537 (0x10001)
        X509v3 extensions:
            X509v3 Basic Constraints: 
                CA:FALSE
            Netscape Comment: 
                OpenSSL Generated Certificate
            X509v3 Subject Key Identifier: 
                01:45:65:97:33:5A:94:0D:4E:CD:D4:34:42:EB:E2:98:42:DF:3A:54
            X509v3 Authority Key Identifier: 
                keyid:6E:C2:44:43:34:5C:1E:2E:86:D9:50:23:E9:4B:15:AB:9A:EC:FE:41

    Signature Algorithm: sha1WithRSAEncryption
         19:8b:f9:84:b2:18:d1:74:4d:6d:01:f8:0b:7d:a8:f2:9d:08:
         fe:7f:49:32:11:3d:79:41:c9:d4:27:9c:34:11:9a:bb:15:af:
         69:cf:50:aa:f2:a9:a7:e4:a5:b7:f0:4a:2d:fb:cb:8d:71:8c:
         ce:f3:43:11:6c:db:81:b4:53:1f:76:8e:62:91:c5:20:00:dc:
         67:55:24:83:13:37:c5:68:79:6a:69:2e:df:30:35:ea:c1:a2:
         27:15:69:a4:fc:3e:27:a8:c1:62:7b:91:b0:26:4f:79:a9:75:
         05:e8:3a:e5:e8:8f:1c:3e:fe:1e:b7:d7:61:f8:c4:a4:c9:cb:
         be:fc:94:a5:4a:f1:9c:7f:4a:1f:51:e7:d5:a4:84:3c:b6:f2:
         8a:4a:02:0a:5e:a9:62:9f:1b:30:4a:2f:5f:4b:c3:45:82:b3:
         4c:8e:d3:9a:0d:59:ca:49:8a:a8:88:87:89:d0:00:aa:bd:28:
         28:90:0c:2e:9d:37:0f:16:0f:d2:a6:32:83:bc:4f:85:db:c1:
         61:2a:a9:d5:7d:e6:dd:61:88:c7:4a:ce:d9:8b:b3:e2:c9:8c:
         1b:7a:a6:85:f0:ce:71:de:9f:02:c1:25:e4:3a:7f:14:41:41:
         2a:f0:39:92:62:3f:a7:e3:b2:25:8c:49:de:36:a8:f1:eb:c3:
         2c:d3:82:e4
-----BEGIN CERTIFICATE-----
MIIEzTCCA7WgAwIBAgIJAOxaJI6vRGQHMA0GCSqGSIb3DQEBBQUAMFwxCzAJBgNV
BAYTAlVTMRIwEAYDVQQIDAlDYWxpZm9yeWExEDAOBgNVBAoMB1JpZW1hbm4xDTAL
BgNVBAsMBFRlc3QxGDAWBgNVBAMMD1JpZW1hbm4gcm9vdCBDQTAeFw0xMzA1MzAx
OTExMDRaFw0xNDA1MzAxOTExMDRaMHMxCzAJBgNVBAYTAlVTMRIwEAYDVQQIDAlD
YWxpZm9yeWExFjAUBgNVBAcMDVNhbiBGcmFuY2lzY28xEDAOBgNVBAoMB1JpZW1h
bm4xDTALBgNVBAsMBFRlc3QxFzAVBgNVBAMMDlJpZW1hbm4gY2xpZW50MIICIjAN
BgkqhkiG9w0BAQEFAAOCAg8AMIICCgKCAgEA1u7nrIL+iZbYQRp8/1a99PDW2BH8
NYmixMIKOdHFxciGEnb28ZqbdWs1dlh4s/DF0HL3mKdMg+2ZJwZf0j+IeYB7Ydb6
2Q2Ep5SbbGE743qkSX/oVnQyKXhYg3gALuinEpiHEH/akC8TJkoGiSEMhdDeE7bj
yuU4t7tU5e7KFOsMiUTI8zrC+F9YjOg6AO8v1i5KM2fRTptxNk4OfuvDhzBJpJUM
Lw2KDl6poRJfS3QpwMGzQvpZbOx1Zm8J10QEnVul/XMpbNl91lk9wPcWbGbB4PJE
WUozoMXCXU5T3dwjRDJnG1lekckte70J5VWMSxXrZtM5iTdY5wRvIUnCx3wFVO+8
lbA9h11/9RwkWVPhM+D+kdLf3fIopI8r49Z1+IUCpXc0qM++lKxFjd8VyhpAMca+
ER7rzcb6PqF29uN5EOBEs2Vp6X8XY29qwMj3+TnqM8o4cA9CHt+oJ5KiwHKiX9K6
zWKLbAY6Pl6P8AtzcQVCYWB+Sv0ZUoxCwALJmCskJk+M5JfVt4TLfGlwZb0q+no9
5eCcAYorDbBFyw4UifWXcTjk/vEaAkdNrJZcGC/LB/FH+FC+rV7mAWFzL1aUbL+G
GAS4KkXdzYoUpczPvmagi+0SzhasDeavyXRlnelTzMX/dV+k4dU4hbB/JDr7Z7d8
4EQc3KZaTa9lmEECAwEAAaN7MHkwCQYDVR0TBAIwADAsBglghkgBhvhCAQ0EHxYd
T3BlblNTTCBHZW5lcmF0ZWQgQ2VydGlmaWNhdGUwHQYDVR0OBBYEFAFFZZczWpQN
Ts3UNELr4phC3zpUMB8GA1UdIwQYMBaAFG7CREM0XB4uhtlQI+lLFaua7P5BMA0G
CSqGSIb3DQEBBQUAA4IBAQAZi/mEshjRdE1tAfgLfajynQj+f0kyET15QcnUJ5w0
EZq7Fa9pz1Cq8qmn5KW38Eot+8uNcYzO80MRbNuBtFMfdo5ikcUgANxnVSSDEzfF
aHlqaS7fMDXqwaInFWmk/D4nqMFie5GwJk95qXUF6Drl6I8cPv4et9dh+MSkycu+
/JSlSvGcf0ofUefVpIQ8tvKKSgIKXqlinxswSi9fS8NFgrNMjtOaDVnKSYqoiIeJ
0ACqvSgokAwunTcPFg/SpjKDvE+F28FhKqnVfebdYYjHSs7Zi7PiyYwbeqaF8M5x
3p8CwSXkOn8UQUEq8DmSYj+n47IljEneNqjx68Ms04Lk
-----END CERTIFICATE-----
