Certificate:
    Data:
        Version: 3 (0x2)
        Serial Number: 17030965136099402758 (0xec5a248eaf446406)
    Signature Algorithm: sha1WithRSAEncryption
        Issuer: C=US, ST=Califorya, O=Riemann, OU=Test, CN=Riemann root CA
        Validity
            Not Before: May 30 19:06:26 2013 GMT
            Not After : May 30 19:06:26 2014 GMT
        Subject: C=US, ST=Califorya, L=San Francisco, O=Riemann, OU=Test, CN=Riemann Server
        Subject Public Key Info:
            Public Key Algorithm: rsaEncryption
                Public-Key: (4096 bit)
                Modulus:
                    00:c9:a4:f7:fb:13:28:10:cf:2f:bb:60:6f:74:a1:
                    d2:c0:b6:00:f2:33:b1:21:6e:12:3a:8e:4c:cf:0a:
                    2b:40:11:3e:25:34:cd:b6:5a:1e:b4:d0:be:56:c0:
                    a8:33:2c:5b:c3:80:34:84:14:51:75:c2:8f:e4:d1:
                    10:b2:52:96:07:16:2a:41:d2:a3:b0:4d:7f:1e:e9:
                    f1:67:f1:1b:d7:ab:46:a8:1c:1f:1f:b5:f6:72:f8:
                    52:e2:d8:2c:44:39:0c:4f:1a:62:26:32:1a:d9:65:
                    39:ca:ab:e0:21:55:d6:e6:31:1e:8d:53:f3:37:bd:
                    e4:9a:a0:72:62:bb:8c:f4:9d:f2:14:b1:42:96:13:
                    1b:d8:13:6e:ca:c8:26:1e:dd:98:fc:dd:25:1c:78:
                    ba:37:31:af:68:49:dc:5b:c0:4a:94:e2:23:30:5d:
                    2d:ae:d8:43:f2:2c:95:24:fc:78:f6:04:5d:fd:32:
                    09:62:47:10:36:81:a2:3d:61:02:85:9c:1b:d0:6d:
                    b9:73:1f:b1:fc:5f:77:a0:c9:78:f5:05:6a:62:ee:
                    50:dc:9e:10:d8:4b:a5:b2:0b:1b:c0:bb:4a:80:17:
                    fc:98:67:8e:83:59:de:3c:04:34:1a:3a:63:89:3b:
                    d0:86:12:25:88:d2:73:fa:45:ed:21:e1:7e:79:76:
                    d6:1a:97:b6:af:6e:64:ad:94:9a:37:1c:c1:6c:bf:
                    fc:52:e8:ef:2d:d1:7c:da:a5:2f:0c:f3:ed:03:31:
                    d2:a1:8c:57:38:7b:c8:d9:d5:0a:e6:69:88:1c:60:
                    73:91:58:82:b2:5d:04:ff:ad:6b:b6:a9:2d:1b:38:
                    6f:45:2b:8c:ab:f3:1d:b7:f5:2f:30:f5:b2:7e:e8:
                    f5:52:07:15:90:9a:d7:a6:82:90:74:47:4e:f1:0f:
                    5b:ac:1e:57:7e:ae:42:48:54:f0:8c:d0:7e:8a:9c:
                    aa:56:45:25:8f:d5:81:39:3a:61:20:42:1b:08:bd:
                    f4:d2:5e:57:21:23:83:d1:63:82:5b:b9:26:1c:6d:
                    51:e3:b6:9a:e3:0b:71:aa:39:21:39:60:af:dc:94:
                    e5:ae:d2:49:be:68:e3:92:68:15:20:14:6b:3f:6e:
                    1f:c0:43:64:71:27:b3:dd:31:f5:dd:fc:70:a7:14:
                    ad:c4:ae:b5:9b:13:39:b4:d1:3e:1b:b2:cf:18:26:
                    eb:d8:76:8f:6c:25:dc:37:fc:5e:cb:ad:c4:c3:5e:
                    59:c1:31:21:c7:ef:ec:dc:5b:0b:89:86:c9:b0:75:
                    bf:23:db:16:1a:ad:5f:2b:65:d5:da:90:fb:de:79:
                    97:b9:a7:17:38:71:ef:68:7e:e4:ca:45:67:31:5c:
                    b6:c9:55
                Exponent: 65537 (0x10001)
        X509v3 extensions:
            X509v3 Basic Constraints: 
                CA:FALSE
            Netscape Comment: 
                OpenSSL Generated Certificate
            X509v3 Subject Key Identifier: 
                92:0B:68:70:6D:CB:1D:59:C0:50:84:A1:33:6B:CB:06:B7:45:2E:FB
            X509v3 Authority Key Identifier: 
                keyid:6E:C2:44:43:34:5C:1E:2E:86:D9:50:23:E9:4B:15:AB:9A:EC:FE:41

    Signature Algorithm: sha1WithRSAEncryption
         a7:a2:d2:72:f8:f1:bd:b9:f2:3f:60:96:7c:71:96:27:9c:6b:
         f3:6c:df:92:57:c4:9a:28:f7:ca:2e:4a:9c:86:22:58:d0:1b:
         4e:40:9e:73:dc:9a:1a:84:52:95:0b:59:5b:7b:aa:14:35:d9:
         3c:49:de:a0:98:1c:0e:b3:64:7b:d9:e8:10:d9:b6:43:26:df:
         ac:4d:b4:02:82:1a:8a:a1:d4:1f:b0:2b:26:bc:f1:d0:0a:2e:
         22:f1:9a:61:28:ae:b0:c6:02:33:24:53:9d:d5:5f:5c:6d:35:
         4d:a7:4f:da:6e:e1:bd:28:57:09:9f:14:bf:ff:9d:1a:fe:d5:
         51:b6:1b:c6:0b:93:35:01:d9:38:68:ec:5a:60:ac:ff:10:62:
         db:b3:e8:91:d1:fa:14:41:86:71:7a:82:07:5f:4f:2f:d9:ca:
         1f:51:aa:3d:92:7c:34:a7:3c:0d:66:ea:93:36:eb:d3:1e:bd:
         16:55:b4:5d:17:07:40:b5:3c:d9:85:c5:54:6b:09:64:53:70:
         b1:7a:4f:14:a2:49:27:f5:c3:20:08:93:14:d1:c7:64:ad:7d:
         f1:d6:cd:50:05:b1:0d:b9:56:12:c0:88:32:f3:8a:dd:86:f0:
         0c:3f:8d:76:45:14:f9:ca:48:30:d7:67:0b:c0:44:f1:57:87:
         66:7f:ab:99
-----BEGIN CERTIFICATE-----
MIIEzTCCA7WgAwIBAgIJAOxaJI6vRGQGMA0GCSqGSIb3DQEBBQUAMFwxCzAJBgNV
BAYTAlVTMRIwEAYDVQQIDAlDYWxpZm9yeWExEDAOBgNVBAoMB1JpZW1hbm4xDTAL
BgNVBAsMBFRlc3QxGDAWBgNVBAMMD1JpZW1hbm4gcm9vdCBDQTAeFw0xMzA1MzAx
OTA2MjZaFw0xNDA1MzAxOTA2MjZaMHMxCzAJBgNVBAYTAlVTMRIwEAYDVQQIDAlD
YWxpZm9yeWExFjAUBgNVBAcMDVNhbiBGcmFuY2lzY28xEDAOBgNVBAoMB1JpZW1h
bm4xDTALBgNVBAsMBFRlc3QxFzAVBgNVBAMMDlJpZW1hbm4gU2VydmVyMIICIjAN
BgkqhkiG9w0BAQEFAAOCAg8AMIICCgKCAgEAyaT3+xMoEM8vu2BvdKHSwLYA8jOx
IW4SOo5MzworQBE+JTTNtloetNC+VsCoMyxbw4A0hBRRdcKP5NEQslKWBxYqQdKj
sE1/HunxZ/Eb16tGqBwfH7X2cvhS4tgsRDkMTxpiJjIa2WU5yqvgIVXW5jEejVPz
N73kmqByYruM9J3yFLFClhMb2BNuysgmHt2Y/N0lHHi6NzGvaEncW8BKlOIjMF0t
rthD8iyVJPx49gRd/TIJYkcQNoGiPWEChZwb0G25cx+x/F93oMl49QVqYu5Q3J4Q
2EulsgsbwLtKgBf8mGeOg1nePAQ0GjpjiTvQhhIliNJz+kXtIeF+eXbWGpe2r25k
rZSaNxzBbL/8UujvLdF82qUvDPPtAzHSoYxXOHvI2dUK5mmIHGBzkViCsl0E/61r
tqktGzhvRSuMq/Mdt/UvMPWyfuj1UgcVkJrXpoKQdEdO8Q9brB5Xfq5CSFTwjNB+
ipyqVkUlj9WBOTphIEIbCL300l5XISOD0WOCW7kmHG1R47aa4wtxqjkhOWCv3JTl
rtJJvmjjkmgVIBRrP24fwENkcSez3TH13fxwpxStxK61mxM5tNE+G7LPGCbr2HaP
bCXcN/xey63Ew15ZwTEhx+/s3FsLiYbJsHW/I9sWGq1fK2XV2pD73nmXuacXOHHv
aH7kykVnMVy2yVUCAwEAAaN7MHkwCQYDVR0TBAIwADAsBglghkgBhvhCAQ0EHxYd
T3BlblNTTCBHZW5lcmF0ZWQgQ2VydGlmaWNhdGUwHQYDVR0OBBYEFJILaHBtyx1Z
wFCEoTNrywa3RS77MB8GA1UdIwQYMBaAFG7CREM0XB4uhtlQI+lLFaua7P5BMA0G
CSqGSIb3DQEBBQUAA4IBAQCnotJy+PG9ufI/YJZ8cZYnnGvzbN+SV8SaKPfKLkqc
hiJY0BtOQJ5z3JoahFKVC1lbe6oUNdk8Sd6gmBwOs2R72egQ2bZDJt+sTbQCghqK
odQfsCsmvPHQCi4i8ZphKK6wxgIzJFOd1V9cbTVNp0/abuG9KFcJnxS//50a/tVR
thvGC5M1Adk4aOxaYKz/EGLbs+iR0foUQYZxeoIHX08v2cofUao9knw0pzwNZuqT
NuvTHr0WVbRdFwdAtTzZhcVUawlkU3Cxek8Uokkn9cMgCJMU0cdkrX3x1s1QBbEN
uVYSwIgy84rdhvAMP412RRT5ykgw12cLwETxV4dmf6uZ
-----END CERTIFICATE-----
