Certificate:
    Data:
        Version: 3 (0x2)
        Serial Number: 10169727257177036165 (0x8d22210f12a51585)
    Signature Algorithm: sha256WithRSAEncryption
        Issuer: C=US, ST=California, O=Riemann, OU=Test, CN=test.riemann.io
        Validity
            Not Before: Jun  4 01:11:21 2014 GMT
            Not After : Jun  3 01:11:21 2017 GMT
        Subject: C=US, ST=California, O=Riemann, OU=Test, CN=test.riemann.io
        Subject Public Key Info:
            Public Key Algorithm: rsaEncryption
                Public-Key: (2048 bit)
                Modulus:
                    00:a2:01:80:21:f2:7b:5a:ba:c1:9f:3c:98:eb:ed:
                    20:a4:b6:9e:b6:62:20:9f:8f:c8:cb:29:e0:9b:7c:
                    9c:e8:89:d8:18:5e:ba:4f:e8:5e:ca:86:f7:48:57:
                    27:44:9d:a4:b7:5d:97:38:72:24:f2:b3:15:58:51:
                    73:33:f2:5c:57:b0:7b:20:15:dc:ab:af:85:f4:63:
                    5d:b3:0f:7c:8f:ed:48:15:ae:35:0d:85:e3:6d:5f:
                    a3:d2:8d:45:e5:f6:23:1d:0f:e2:ad:25:56:1e:e8:
                    93:b7:95:f5:21:7a:54:b0:6d:aa:af:65:85:49:6c:
                    1a:3c:ff:e6:05:31:ab:9d:d1:53:91:a9:95:23:60:
                    67:a7:4e:56:74:68:f1:28:8c:f9:d2:5f:e8:fc:7f:
                    0e:25:cf:e6:b0:7c:04:de:29:8a:f1:86:ce:22:61:
                    55:2c:1b:90:bd:e4:83:47:aa:16:e6:7c:00:dd:a1:
                    14:a3:23:1c:fb:83:71:d0:27:67:f3:0d:c7:76:54:
                    cb:41:fb:60:dd:cd:63:5c:6c:f0:bf:50:68:80:50:
                    02:e1:dd:f3:7f:f6:11:33:1e:eb:2b:26:57:45:72:
                    b3:8e:14:f8:89:98:37:da:8d:cd:b8:ee:d4:71:c6:
                    50:9a:5f:64:c4:7b:51:29:38:e1:4a:0c:e9:7b:91:
                    b6:ff
                Exponent: 65537 (0x10001)
        X509v3 extensions:
            X509v3 Subject Key Identifier: 
                20:09:62:40:3D:81:4B:65:2F:35:B1:70:A8:84:5C:CD:5F:03:C2:1D
            X509v3 Authority Key Identifier: 
                keyid:20:09:62:40:3D:81:4B:65:2F:35:B1:70:A8:84:5C:CD:5F:03:C2:1D

            X509v3 Basic Constraints: 
                CA:TRUE
    Signature Algorithm: sha256WithRSAEncryption
         24:2e:fb:5f:96:3a:71:93:07:15:6c:b3:d1:bb:11:e2:6a:7d:
         43:93:94:cd:41:31:08:a9:b2:e9:c7:79:45:f5:f6:85:37:32:
         42:43:c4:0e:74:0a:80:e8:a9:03:35:1d:09:f4:4c:c8:f8:13:
         ad:89:07:f9:a8:aa:e2:aa:5c:be:ae:9f:61:1e:f0:b7:7b:35:
         c3:cb:2c:e9:5c:ca:ac:36:be:40:d9:db:90:25:e1:79:cf:fc:
         1c:7d:a2:df:96:ea:0e:ff:8d:1c:65:67:9d:c1:3e:62:4a:19:
         74:a9:43:47:cb:a3:77:ca:91:b4:eb:65:e5:af:ac:c8:75:80:
         6f:07:13:37:0f:1c:b9:7f:70:7b:ff:45:b8:14:c6:8e:bd:25:
         b3:b6:4a:2f:86:5d:cc:22:fd:57:24:7a:b1:79:f4:0c:21:f0:
         80:92:05:88:da:e5:b7:e8:62:fb:1b:d6:6f:b8:c8:cb:af:54:
         f2:ec:ed:a6:67:06:bc:7c:a7:c7:7a:16:80:b6:79:d2:62:41:
         17:e3:97:81:e5:18:ff:ba:66:c2:4e:ab:29:5e:1b:50:a0:89:
         b8:c0:54:09:ed:2a:6c:d7:be:94:7d:e4:eb:92:7f:e4:35:ee:
         57:d5:23:65:8f:7d:f8:2a:bf:da:06:1b:c0:61:af:71:9b:11:
         4b:66:be:8d
-----BEGIN CERTIFICATE-----
MIIDjTCCAnWgAwIBAgIJAI0iIQ8SpRWFMA0GCSqGSIb3DQEBCwUAMF0xCzAJBgNV
BAYTAlVTMRMwEQYDVQQIDApDYWxpZm9ybmlhMRAwDgYDVQQKDAdSaWVtYW5uMQ0w
CwYDVQQLDARUZXN0MRgwFgYDVQQDDA90ZXN0LnJpZW1hbm4uaW8wHhcNMTQwNjA0
MDExMTIxWhcNMTcwNjAzMDExMTIxWjBdMQswCQYDVQQGEwJVUzETMBEGA1UECAwK
Q2FsaWZvcm5pYTEQMA4GA1UECgwHUmllbWFubjENMAsGA1UECwwEVGVzdDEYMBYG
A1UEAwwPdGVzdC5yaWVtYW5uLmlvMIIBIjANBgkqhkiG9w0BAQEFAAOCAQ8AMIIB
CgKCAQEAogGAIfJ7WrrBnzyY6+0gpLaetmIgn4/Iyyngm3yc6InYGF66T+heyob3
SFcnRJ2kt12XOHIk8rMVWFFzM/JcV7B7IBXcq6+F9GNdsw98j+1IFa41DYXjbV+j
0o1F5fYjHQ/irSVWHuiTt5X1IXpUsG2qr2WFSWwaPP/mBTGrndFTkamVI2Bnp05W
dGjxKIz50l/o/H8OJc/msHwE3imK8YbOImFVLBuQveSDR6oW5nwA3aEUoyMc+4Nx
0Cdn8w3HdlTLQftg3c1jXGzwv1BogFAC4d3zf/YRMx7rKyZXRXKzjhT4iZg32o3N
uO7UccZQml9kxHtRKTjhSgzpe5G2/wIDAQABo1AwTjAdBgNVHQ4EFgQUIAliQD2B
S2UvNbFwqIRczV8Dwh0wHwYDVR0jBBgwFoAUIAliQD2BS2UvNbFwqIRczV8Dwh0w
DAYDVR0TBAUwAwEB/zANBgkqhkiG9w0BAQsFAAOCAQEAJC77X5Y6cZMHFWyz0bsR
4mp9Q5OUzUExCKmy6cd5RfX2hTcyQkPEDnQKgOipAzUdCfRMyPgTrYkH+aiq4qpc
vq6fYR7wt3s1w8ss6VzKrDa+QNnbkCXhec/8HH2i35bqDv+NHGVnncE+YkoZdKlD
R8ujd8qRtOtl5a+syHWAbwcTNw8cuX9we/9FuBTGjr0ls7ZKL4ZdzCL9VyR6sXn0
DCHwgJIFiNrlt+hi+xvWb7jIy69U8uztpmcGvHynx3oWgLZ50mJBF+OXgeUY/7pm
wk6rKV4bUKCJuMBUCe0qbNe+lH3k65J/5DXuV9UjZY99+Cq/2gYbwGGvcZsRS2a+
jQ==
-----END CERTIFICATE-----
