Certificate:
    Data:
        Version: 3 (0x2)
        Serial Number: 10169727257177036166 (0x8d22210f12a51586)
    Signature Algorithm: sha256WithRSAEncryption
        Issuer: C=US, ST=California, O=Riemann, OU=Test, CN=test.riemann.io
        Validity
            Not Before: Jun  4 01:12:11 2014 GMT
            Not After : Jun  4 01:12:11 2015 GMT
        Subject: C=US, ST=California, L=San Francisco, O=Riemann, OU=Test Server, CN=server.test.riemann.io
        Subject Public Key Info:
            Public Key Algorithm: rsaEncryption
                Public-Key: (4096 bit)
                Modulus:
                    00:bd:bb:24:3d:12:ce:f9:fc:3f:33:d3:18:51:2f:
                    34:52:0c:13:03:41:94:5b:dd:db:27:3d:d4:14:d9:
                    29:ed:d5:8e:f9:08:0b:dc:5d:c0:7e:72:e1:36:de:
                    d4:49:27:a7:0b:1c:08:bb:dc:38:51:e7:38:75:d2:
                    49:6a:48:5c:89:4c:56:d5:23:79:d1:04:8a:6d:1a:
                    b9:13:af:a0:e4:4f:3d:fa:0b:77:74:a9:83:17:36:
                    01:e4:c0:5b:13:25:c8:d7:b3:1e:91:24:c3:f7:ad:
                    5a:e6:75:96:23:b3:77:2c:03:cd:e5:28:3e:64:cc:
                    fa:55:e1:04:cc:e2:90:b6:ec:19:f1:bb:f9:2d:65:
                    5b:6f:a2:52:86:0c:af:50:7f:20:18:d8:4f:18:e2:
                    00:08:cd:0d:73:c3:91:bf:6a:8b:b4:2c:e4:3b:a4:
                    62:7e:70:f4:84:5d:c2:e9:1c:5e:64:97:74:b6:c1:
                    0d:9b:28:b0:e8:56:fd:75:07:8e:87:6f:0b:f9:06:
                    54:1f:08:05:e1:25:32:0f:1f:f2:77:3c:c3:23:7b:
                    4c:ed:b6:12:d6:b9:1b:ad:d1:6b:b6:e7:67:a0:98:
                    c6:6f:c0:85:69:a5:eb:48:a6:ab:b8:49:d8:8c:9e:
                    39:4c:e7:b7:50:ab:14:93:4d:43:6a:1f:44:5d:c9:
                    e7:36:fb:98:31:4f:03:d2:21:51:7e:7d:2c:98:04:
                    12:52:b4:7b:91:c7:67:cd:3d:6b:b1:77:f4:09:c4:
                    6d:e0:00:44:23:d2:d3:89:a0:d6:f5:d8:b6:8c:c6:
                    33:b2:b6:0f:73:35:aa:c5:bd:06:d7:3a:bd:f9:e6:
                    d4:e6:59:76:02:39:52:cd:6e:b5:9f:32:f9:26:48:
                    47:70:a9:0c:af:48:f8:01:ed:83:0a:70:23:71:c1:
                    f6:94:44:71:b7:2e:9f:30:82:6c:13:77:ab:3b:e5:
                    07:67:a8:c5:72:35:56:00:fa:e4:a1:df:0e:94:ad:
                    d2:ca:d2:92:de:79:1a:59:2e:84:19:27:12:76:3c:
                    a1:bc:08:d4:8d:07:c9:7c:4a:69:db:db:46:dc:1d:
                    e8:51:42:52:ec:d5:02:10:4b:76:66:50:45:90:b6:
                    f8:a0:f9:1e:d4:6f:ae:34:33:67:9e:da:1a:15:ce:
                    28:d6:98:fb:6d:4e:e9:ba:2e:d9:f1:84:3e:00:83:
                    fe:37:2a:49:45:fd:ac:74:ce:7b:b3:cd:6a:02:ae:
                    31:5e:6a:f3:1a:53:14:06:ea:c6:1d:30:9a:46:a6:
                    4c:07:36:18:29:79:07:19:9b:04:be:b1:8f:07:6f:
                    67:28:4a:c6:ea:fe:1c:9c:c2:c8:90:6f:20:7d:d2:
                    7b:d7:db
                Exponent: 65537 (0x10001)
        X509v3 extensions:
            X509v3 Basic Constraints: 
                CA:FALSE
            Netscape Comment: 
                OpenSSL Generated Certificate
            X509v3 Subject Key Identifier: 
                B1:DB:9A:83:51:54:2F:83:73:DE:43:E1:55:8C:F7:7C:24:E6:9B:BB
            X509v3 Authority Key Identifier: 
                keyid:20:09:62:40:3D:81:4B:65:2F:35:B1:70:A8:84:5C:CD:5F:03:C2:1D

    Signature Algorithm: sha256WithRSAEncryption
         6e:61:3b:60:17:3c:12:89:78:7f:5b:08:0a:f4:f5:3f:8f:11:
         80:87:c6:17:4f:31:92:92:2a:c1:4a:e4:e0:d6:83:5e:8a:d0:
         03:16:c1:77:7b:72:db:0d:42:e5:72:4f:ae:00:b7:a8:ef:37:
         1a:2b:e2:fb:1f:27:3a:de:5f:48:77:6d:fb:4a:86:c5:6f:f1:
         e5:8b:23:6e:e6:13:c1:29:c4:f5:43:d6:3f:fe:03:e6:67:a0:
         8b:91:2c:d6:14:a8:a4:67:bf:83:56:d8:f6:be:92:d7:82:e7:
         e6:e7:0a:97:0b:51:f8:36:39:fc:41:ba:0f:80:01:bf:be:fa:
         b4:7d:0b:ac:66:b1:b1:57:27:b2:06:04:e5:69:eb:3e:c0:ca:
         0f:b7:6c:ab:4e:0a:3b:b9:76:68:6b:f4:7f:70:04:0c:cd:f2:
         ad:01:20:ce:21:62:8f:2b:bd:d4:a8:11:81:67:a8:41:4b:1d:
         83:12:20:a2:77:37:4b:a1:dc:70:17:17:98:d7:60:f4:34:3d:
         04:65:dd:aa:80:33:91:b8:ff:ae:ae:37:fc:f5:eb:64:3b:fd:
         ed:02:dc:ff:91:29:ef:29:b4:b2:56:cf:71:ff:e9:f4:99:d7:
         a2:72:2d:2d:16:cf:ab:b2:a7:ac:af:2d:54:fa:ad:70:ce:5b:
         a9:51:96:b7
-----BEGIN CERTIFICATE-----
MIIE3zCCA8egAwIBAgIJAI0iIQ8SpRWGMA0GCSqGSIb3DQEBCwUAMF0xCzAJBgNV
BAYTAlVTMRMwEQYDVQQIDApDYWxpZm9ybmlhMRAwDgYDVQQKDAdSaWVtYW5uMQ0w
CwYDVQQLDARUZXN0MRgwFgYDVQQDDA90ZXN0LnJpZW1hbm4uaW8wHhcNMTQwNjA0
MDExMjExWhcNMTUwNjA0MDExMjExWjCBgzELMAkGA1UEBhMCVVMxEzARBgNVBAgM
CkNhbGlmb3JuaWExFjAUBgNVBAcMDVNhbiBGcmFuY2lzY28xEDAOBgNVBAoMB1Jp
ZW1hbm4xFDASBgNVBAsMC1Rlc3QgU2VydmVyMR8wHQYDVQQDDBZzZXJ2ZXIudGVz
dC5yaWVtYW5uLmlvMIICIjANBgkqhkiG9w0BAQEFAAOCAg8AMIICCgKCAgEAvbsk
PRLO+fw/M9MYUS80UgwTA0GUW93bJz3UFNkp7dWO+QgL3F3AfnLhNt7USSenCxwI
u9w4Uec4ddJJakhciUxW1SN50QSKbRq5E6+g5E89+gt3dKmDFzYB5MBbEyXI17Me
kSTD961a5nWWI7N3LAPN5Sg+ZMz6VeEEzOKQtuwZ8bv5LWVbb6JShgyvUH8gGNhP
GOIACM0Nc8ORv2qLtCzkO6RifnD0hF3C6RxeZJd0tsENmyiw6Fb9dQeOh28L+QZU
HwgF4SUyDx/ydzzDI3tM7bYS1rkbrdFrtudnoJjGb8CFaaXrSKaruEnYjJ45TOe3
UKsUk01Dah9EXcnnNvuYMU8D0iFRfn0smAQSUrR7kcdnzT1rsXf0CcRt4ABEI9LT
iaDW9di2jMYzsrYPczWqxb0G1zq9+ebU5ll2AjlSzW61nzL5JkhHcKkMr0j4Ae2D
CnAjccH2lERxty6fMIJsE3erO+UHZ6jFcjVWAPrkod8OlK3SytKS3nkaWS6EGScS
djyhvAjUjQfJfEpp29tG3B3oUUJS7NUCEEt2ZlBFkLb4oPke1G+uNDNnntoaFc4o
1pj7bU7pui7Z8YQ+AIP+NypJRf2sdM57s81qAq4xXmrzGlMUBurGHTCaRqZMBzYY
KXkHGZsEvrGPB29nKErG6v4cnMLIkG8gfdJ719sCAwEAAaN7MHkwCQYDVR0TBAIw
ADAsBglghkgBhvhCAQ0EHxYdT3BlblNTTCBHZW5lcmF0ZWQgQ2VydGlmaWNhdGUw
HQYDVR0OBBYEFLHbmoNRVC+Dc95D4VWM93wk5pu7MB8GA1UdIwQYMBaAFCAJYkA9
gUtlLzWxcKiEXM1fA8IdMA0GCSqGSIb3DQEBCwUAA4IBAQBuYTtgFzwSiXh/WwgK
9PU/jxGAh8YXTzGSkirBSuTg1oNeitADFsF3e3LbDULlck+uALeo7zcaK+L7Hyc6
3l9Id237SobFb/HliyNu5hPBKcT1Q9Y//gPmZ6CLkSzWFKikZ7+DVtj2vpLXgufm
5wqXC1H4Njn8QboPgAG/vvq0fQusZrGxVyeyBgTlaes+wMoPt2yrTgo7uXZoa/R/
cAQMzfKtASDOIWKPK73UqBGBZ6hBSx2DEiCidzdLodxwFxeY12D0ND0EZd2qgDOR
uP+urjf89etkO/3tAtz/kSnvKbSyVs9x/+n0mdeici0tFs+rsqesry1U+q1wzlup
UZa3
-----END CERTIFICATE-----
