Certificate:
    Data:
        Version: 3 (0x2)
        Serial Number: 10169727257177036167 (0x8d22210f12a51587)
    Signature Algorithm: sha256WithRSAEncryption
        Issuer: C=US, ST=California, O=Riemann, OU=Test, CN=test.riemann.io
        Validity
            Not Before: Jun  4 01:13:13 2014 GMT
            Not After : Jun  4 01:13:13 2015 GMT
        Subject: C=US, ST=California, L=San Francisco, O=Riemann, OU=Client Test, CN=client.test.riemann.io
        Subject Public Key Info:
            Public Key Algorithm: rsaEncryption
                Public-Key: (4096 bit)
                Modulus:
                    00:ce:cc:50:7b:72:b9:f6:6f:de:04:d7:e5:15:9a:
                    4d:0e:c1:b4:b0:21:ff:96:8b:e8:87:0c:3b:9a:38:
                    3f:81:81:0a:fc:4f:aa:6e:88:7a:ce:d0:ed:a8:09:
                    b1:bf:12:3f:4b:cc:33:09:bd:95:6b:f1:2b:ea:fd:
                    c0:1c:9f:3c:7b:1d:d7:33:61:6e:84:0c:b0:15:10:
                    75:25:c6:5b:5e:ec:f9:9c:83:de:0d:ce:45:00:fc:
                    b5:8d:e2:c8:37:e8:f5:ab:97:f2:98:c9:b6:95:f2:
                    4f:85:8c:12:89:4e:6f:72:30:8c:41:8f:a0:c7:32:
                    af:2d:17:f5:26:15:1b:01:0e:28:0e:b1:4b:c3:c6:
                    ec:7c:21:72:44:6d:20:f2:36:05:63:c1:e4:27:3c:
                    b0:f9:85:3b:5c:22:82:ca:8a:34:86:4b:f6:cb:dc:
                    57:34:46:33:c6:5a:31:45:e6:7e:0d:df:8e:90:76:
                    fc:2f:31:c1:7a:92:44:c8:30:9c:d6:da:4c:1a:0b:
                    03:33:6f:f2:ef:85:ae:94:c7:eb:eb:a2:85:ad:44:
                    b1:57:1b:70:02:1a:98:24:c7:ff:f3:86:21:de:2f:
                    fe:dc:e8:8b:5d:fe:17:64:d2:77:90:ce:95:fd:97:
                    3d:b2:66:79:f9:ea:44:19:da:1b:42:52:64:4d:8d:
                    1f:19:e2:00:62:4a:3d:1c:3a:7c:d3:d9:bf:17:b4:
                    54:0e:8c:32:6a:33:7b:e4:15:68:f3:7a:ac:00:15:
                    e7:a7:af:bd:66:b5:50:61:d6:88:88:18:da:1a:6c:
                    5f:72:61:a2:4c:6f:2a:4a:25:ad:55:f8:d0:54:cc:
                    a1:5c:e9:5c:50:32:34:4d:92:34:bd:30:a9:0f:b2:
                    ed:d8:a2:92:7b:9c:b7:6a:e6:71:3b:de:84:54:0f:
                    d2:bd:ea:f2:da:e6:77:54:bb:45:16:78:af:13:b2:
                    86:1e:58:d5:ed:68:a8:ca:1e:8f:fc:5b:95:66:df:
                    5f:45:d5:c7:c3:1d:ec:ec:03:e7:51:72:14:97:5f:
                    30:b4:7b:23:09:f3:5f:bf:2f:a0:b1:0f:9a:c5:47:
                    2a:23:ee:69:89:2f:53:df:c1:35:fc:77:1d:8c:26:
                    48:23:84:bf:e5:c7:b7:90:1e:c7:b3:74:9c:5d:4e:
                    41:3b:38:86:6e:b7:8f:cb:6a:46:b5:7a:37:4f:7c:
                    b2:9e:0e:71:b0:8d:42:8d:b5:2f:71:5b:0b:9b:50:
                    ca:4b:36:42:3f:26:44:26:08:44:b7:ea:7c:d8:27:
                    86:21:fa:8d:e1:16:d0:59:6f:28:bd:35:b1:1c:78:
                    94:f3:68:67:1e:c1:32:f9:2e:ac:6d:38:45:8e:fa:
                    ba:b8:8b
                Exponent: 65537 (0x10001)
        X509v3 extensions:
            X509v3 Basic Constraints: 
                CA:FALSE
            Netscape Comment: 
                OpenSSL Generated Certificate
            X509v3 Subject Key Identifier: 
                96:E0:2C:D9:51:06:5F:0D:CB:40:FC:28:D9:7F:7B:81:E2:D2:D3:30
            X509v3 Authority Key Identifier: 
                keyid:20:09:62:40:3D:81:4B:65:2F:35:B1:70:A8:84:5C:CD:5F:03:C2:1D

    Signature Algorithm: sha256WithRSAEncryption
         5b:91:cf:31:57:d0:44:f3:8d:2c:13:04:14:12:28:7a:e7:10:
         82:00:d6:f7:e2:bf:0f:8a:aa:14:bd:9f:86:7d:4b:2c:f0:62:
         c0:42:fb:d0:cd:84:3b:2c:83:c0:8d:92:8c:03:88:83:1e:8f:
         b7:b2:70:7c:87:e8:df:03:ed:ea:88:66:8a:0a:7d:b5:02:35:
         fa:07:46:07:59:92:34:b5:5a:e6:40:85:3c:5c:4c:7a:b3:fd:
         84:60:fb:59:de:3d:80:95:06:54:d3:64:4c:2c:84:64:24:ff:
         23:5c:8b:ce:b7:57:26:f3:38:4c:e6:63:e7:82:ab:97:3b:ea:
         ce:35:f3:0b:2f:d7:be:6c:eb:fc:e3:4a:6a:86:e8:f0:27:ec:
         1d:f3:b3:16:c3:a6:26:51:40:73:ab:ae:42:fc:4d:c0:22:4f:
         09:25:c6:6c:94:37:75:04:7b:e7:03:6c:c0:c8:27:d5:ed:a3:
         aa:f9:75:16:ff:7e:f5:6b:3b:8e:7b:e9:20:05:6c:63:1c:10:
         f0:d9:ad:92:d1:5b:c8:6e:b2:51:45:f6:c3:c2:5e:31:cf:d7:
         dd:66:29:da:40:1b:ca:57:1f:54:f5:98:93:53:c3:85:18:e7:
         a9:40:a7:f3:cb:39:70:fc:ff:a7:f5:02:37:7a:1f:e6:63:aa:
         3d:e5:68:86
-----BEGIN CERTIFICATE-----
MIIE3zCCA8egAwIBAgIJAI0iIQ8SpRWHMA0GCSqGSIb3DQEBCwUAMF0xCzAJBgNV
BAYTAlVTMRMwEQYDVQQIDApDYWxpZm9ybmlhMRAwDgYDVQQKDAdSaWVtYW5uMQ0w
CwYDVQQLDARUZXN0MRgwFgYDVQQDDA90ZXN0LnJpZW1hbm4uaW8wHhcNMTQwNjA0
MDExMzEzWhcNMTUwNjA0MDExMzEzWjCBgzELMAkGA1UEBhMCVVMxEzARBgNVBAgM
CkNhbGlmb3JuaWExFjAUBgNVBAcMDVNhbiBGcmFuY2lzY28xEDAOBgNVBAoMB1Jp
ZW1hbm4xFDASBgNVBAsMC0NsaWVudCBUZXN0MR8wHQYDVQQDDBZjbGllbnQudGVz
dC5yaWVtYW5uLmlvMIICIjANBgkqhkiG9w0BAQEFAAOCAg8AMIICCgKCAgEAzsxQ
e3K59m/eBNflFZpNDsG0sCH/lovohww7mjg/gYEK/E+qboh6ztDtqAmxvxI/S8wz
Cb2Va/Er6v3AHJ88ex3XM2FuhAywFRB1JcZbXuz5nIPeDc5FAPy1jeLIN+j1q5fy
mMm2lfJPhYwSiU5vcjCMQY+gxzKvLRf1JhUbAQ4oDrFLw8bsfCFyRG0g8jYFY8Hk
Jzyw+YU7XCKCyoo0hkv2y9xXNEYzxloxReZ+Dd+OkHb8LzHBepJEyDCc1tpMGgsD
M2/y74WulMfr66KFrUSxVxtwAhqYJMf/84Yh3i/+3OiLXf4XZNJ3kM6V/Zc9smZ5
+epEGdobQlJkTY0fGeIAYko9HDp809m/F7RUDowyajN75BVo83qsABXnp6+9ZrVQ
YdaIiBjaGmxfcmGiTG8qSiWtVfjQVMyhXOlcUDI0TZI0vTCpD7Lt2KKSe5y3auZx
O96EVA/Svery2uZ3VLtFFnivE7KGHljV7Wioyh6P/FuVZt9fRdXHwx3s7APnUXIU
l18wtHsjCfNfvy+gsQ+axUcqI+5piS9T38E1/HcdjCZII4S/5ce3kB7Hs3ScXU5B
OziGbrePy2pGtXo3T3yyng5xsI1CjbUvcVsLm1DKSzZCPyZEJghEt+p82CeGIfqN
4RbQWW8ovTWxHHiU82hnHsEy+S6sbThFjvq6uIsCAwEAAaN7MHkwCQYDVR0TBAIw
ADAsBglghkgBhvhCAQ0EHxYdT3BlblNTTCBHZW5lcmF0ZWQgQ2VydGlmaWNhdGUw
HQYDVR0OBBYEFJbgLNlRBl8Ny0D8KNl/e4Hi0tMwMB8GA1UdIwQYMBaAFCAJYkA9
gUtlLzWxcKiEXM1fA8IdMA0GCSqGSIb3DQEBCwUAA4IBAQBbkc8xV9BE840sEwQU
Eih65xCCANb34r8PiqoUvZ+GfUss8GLAQvvQzYQ7LIPAjZKMA4iDHo+3snB8h+jf
A+3qiGaKCn21AjX6B0YHWZI0tVrmQIU8XEx6s/2EYPtZ3j2AlQZU02RMLIRkJP8j
XIvOt1cm8zhM5mPngquXO+rONfMLL9e+bOv840pqhujwJ+wd87MWw6YmUUBzq65C
/E3AIk8JJcZslDd1BHvnA2zAyCfV7aOq+XUW/371azuOe+kgBWxjHBDw2a2S0VvI
brJRRfbDwl4xz9fdZinaQBvKVx9U9ZiTU8OFGOepQKfzyzlw/P+n9QI3eh/mY6o9
5WiG
-----END CERTIFICATE-----
