Certificate:
    Data:
        Version: 3 (0x2)
        Serial Number: 10735806336529667391 (0x94fd3efb7a3d153f)
    Signature Algorithm: sha256WithRSAEncryption
        Issuer: C=US, ST=CA, O=Puppy Bureaucracy, OU=Distributed Systems Department, CN=test.riemann.io
        Validity
            Not Before: Jul 13 21:50:23 2015 GMT
            Not After : Apr 27 21:50:23 2289 GMT
        Subject: C=US, ST=CA, L=San Francisco, O=Puppy Bureaucracy, OU=Riemann Testing Dept, CN=arf.riemann.io
        Subject Public Key Info:
            Public Key Algorithm: rsaEncryption
                Public-Key: (4096 bit)
                Modulus:
                    00:93:9e:4f:d3:bf:f9:d7:0b:ce:8c:08:ae:26:6b:
                    f7:f9:cd:c2:ae:f9:22:fd:ec:0c:cc:dc:f1:e7:2a:
                    b5:2f:65:1c:6f:61:ef:57:40:d5:b7:dd:f9:e9:30:
                    f6:c1:89:e1:b4:39:db:b7:06:b8:45:ca:4c:1e:86:
                    de:fe:a3:bc:0a:33:45:3b:d0:bc:f8:7f:ba:6c:44:
                    f9:ff:33:03:c4:c2:e0:d4:21:14:2b:c8:76:f7:62:
                    2e:90:b2:a8:73:cb:99:14:6c:56:59:42:69:5b:f4:
                    26:c9:0d:31:b5:12:57:5f:92:73:5e:c1:16:ed:f3:
                    ba:81:d6:2f:60:22:e4:d2:bd:a1:d1:76:27:63:5c:
                    a5:43:bf:96:44:31:b6:b4:2e:f7:8e:c9:40:d4:17:
                    54:4a:be:e2:b3:0c:5e:cb:66:19:a9:40:98:b2:d8:
                    ec:59:bb:17:76:92:18:f0:23:04:26:a5:fa:73:f7:
                    77:63:c8:d3:8e:21:c5:70:3a:71:3d:97:dc:e5:00:
                    68:e4:66:e4:0a:b0:81:f6:94:a3:a1:77:87:0a:9a:
                    22:6a:8d:b6:64:37:c4:b8:73:ce:e4:a4:54:4d:66:
                    b7:cf:7b:d3:5a:9c:68:8e:f7:b7:f1:82:9a:4a:85:
                    08:a4:9a:c6:3b:1d:c1:8f:54:c8:8e:6d:13:de:3b:
                    51:a7:71:16:cd:00:74:d2:cf:7a:9b:ea:bc:d8:22:
                    d7:c7:3f:a2:28:bc:07:17:f9:88:dd:eb:fd:7e:31:
                    e7:88:af:9c:db:cb:dc:86:fd:bd:38:e9:72:c2:b1:
                    11:68:4b:e9:70:cd:d2:01:af:37:47:66:97:59:5e:
                    e3:83:bf:6b:99:3a:29:81:b1:e3:f9:4c:81:20:02:
                    00:04:06:c8:97:25:f5:84:4b:20:12:b2:93:ec:9a:
                    17:d8:d7:69:c7:27:65:18:c0:8e:b3:7e:aa:6c:39:
                    43:83:1f:95:81:21:59:a0:1d:1f:15:9f:2d:2f:5b:
                    34:6f:44:30:66:39:ec:8e:29:01:70:a3:97:8a:ca:
                    30:4a:50:40:15:59:e9:44:98:e9:9a:9a:f2:50:1b:
                    39:22:4a:b1:23:58:ab:4d:13:e3:4a:e9:42:4f:2d:
                    c7:74:ab:88:92:24:bc:3f:1d:86:19:54:05:4c:e0:
                    7e:6d:4e:fd:67:7f:68:70:21:ad:45:12:69:2f:4f:
                    a2:96:47:b1:76:da:76:a1:c2:6b:c2:00:c1:7f:ba:
                    00:2c:c8:36:87:c0:f9:9b:31:33:40:4c:c1:be:3e:
                    60:09:b6:48:c8:6d:68:44:c4:54:3d:a5:c1:3d:27:
                    5d:12:47:16:aa:d0:7e:1f:2e:4f:a0:5c:84:5c:98:
                    0e:2f:5d
                Exponent: 65537 (0x10001)
        X509v3 extensions:
            X509v3 Basic Constraints: 
                CA:FALSE
            Netscape Comment: 
                OpenSSL Generated Certificate
            X509v3 Subject Key Identifier: 
                C6:EA:FF:50:F7:C9:C9:23:99:BF:6D:27:8A:EF:DC:0E:37:7D:95:BA
            X509v3 Authority Key Identifier: 
                keyid:C4:19:70:FE:F5:DB:A2:F6:52:B5:C2:8E:30:6C:B0:C9:9C:90:78:18

    Signature Algorithm: sha256WithRSAEncryption
         5e:2a:c1:74:8a:6c:a0:0d:c6:ab:30:85:2e:74:6d:4b:b8:63:
         53:c0:dd:99:2f:dd:40:eb:72:31:9c:ea:05:d2:96:93:62:47:
         86:8b:80:7b:70:47:8f:e2:39:69:ed:76:df:6f:14:81:a0:dd:
         da:0c:15:41:8a:4c:b9:c5:ed:d9:a7:66:72:d3:56:e0:82:be:
         c7:96:a0:b3:36:55:da:6c:c8:e3:db:9d:98:6a:0c:75:52:86:
         2e:89:41:39:6e:7f:58:dc:25:d2:4f:2f:e9:d3:94:80:fb:ba:
         4f:15:a8:5b:04:36:b2:13:3a:18:8d:33:b7:ac:f4:4a:7f:91:
         f4:31:f8:6c:b2:ac:df:58:fa:3f:11:02:3b:ac:82:7f:db:09:
         8b:06:e8:c6:79:e8:a1:fe:89:88:cc:91:ae:ea:f0:11:16:e6:
         c5:1d:af:21:c6:ac:82:e4:50:e8:18:81:f1:46:e7:ba:bd:29:
         4b:a7:7c:87:c4:d4:df:d5:98:4e:90:d3:fa:84:59:b2:4d:50:
         bb:2e:33:10:d0:4e:78:25:97:ee:35:72:36:98:93:c8:12:30:
         12:10:db:8c:f0:88:1f:78:86:ab:39:9d:9b:91:3d:33:b1:e0:
         62:ac:ff:c2:db:d8:25:67:94:a5:4e:e7:e4:87:1a:39:c8:13:
         ac:d0:fb:44
-----BEGIN CERTIFICATE-----
MIIFADCCA+igAwIBAgIJAJT9Pvt6PRU/MA0GCSqGSIb3DQEBCwUAMHkxCzAJBgNV
BAYTAlVTMQswCQYDVQQIDAJDQTEaMBgGA1UECgwRUHVwcHkgQnVyZWF1Y3JhY3kx
JzAlBgNVBAsMHkRpc3RyaWJ1dGVkIFN5c3RlbXMgRGVwYXJ0bWVudDEYMBYGA1UE
AwwPdGVzdC5yaWVtYW5uLmlvMCAXDTE1MDcxMzIxNTAyM1oYDzIyODkwNDI3MjE1
MDIzWjCBhjELMAkGA1UEBhMCVVMxCzAJBgNVBAgMAkNBMRYwFAYDVQQHDA1TYW4g
RnJhbmNpc2NvMRowGAYDVQQKDBFQdXBweSBCdXJlYXVjcmFjeTEdMBsGA1UECwwU
UmllbWFubiBUZXN0aW5nIERlcHQxFzAVBgNVBAMMDmFyZi5yaWVtYW5uLmlvMIIC
IjANBgkqhkiG9w0BAQEFAAOCAg8AMIICCgKCAgEAk55P07/51wvOjAiuJmv3+c3C
rvki/ewMzNzx5yq1L2Ucb2HvV0DVt9356TD2wYnhtDnbtwa4RcpMHobe/qO8CjNF
O9C8+H+6bET5/zMDxMLg1CEUK8h292IukLKoc8uZFGxWWUJpW/QmyQ0xtRJXX5Jz
XsEW7fO6gdYvYCLk0r2h0XYnY1ylQ7+WRDG2tC73jslA1BdUSr7iswxey2YZqUCY
stjsWbsXdpIY8CMEJqX6c/d3Y8jTjiHFcDpxPZfc5QBo5GbkCrCB9pSjoXeHCpoi
ao22ZDfEuHPO5KRUTWa3z3vTWpxojve38YKaSoUIpJrGOx3Bj1TIjm0T3jtRp3EW
zQB00s96m+q82CLXxz+iKLwHF/mI3ev9fjHniK+c28vchv29OOlywrERaEvpcM3S
Aa83R2aXWV7jg79rmTopgbHj+UyBIAIABAbIlyX1hEsgErKT7JoX2NdpxydlGMCO
s36qbDlDgx+VgSFZoB0fFZ8tL1s0b0QwZjnsjikBcKOXisowSlBAFVnpRJjpmpry
UBs5IkqxI1irTRPjSulCTy3HdKuIkiS8Px2GGVQFTOB+bU79Z39ocCGtRRJpL0+i
lkexdtp2ocJrwgDBf7oALMg2h8D5mzEzQEzBvj5gCbZIyG1oRMRUPaXBPSddEkcW
qtB+Hy5PoFyEXJgOL10CAwEAAaN7MHkwCQYDVR0TBAIwADAsBglghkgBhvhCAQ0E
HxYdT3BlblNTTCBHZW5lcmF0ZWQgQ2VydGlmaWNhdGUwHQYDVR0OBBYEFMbq/1D3
yckjmb9tJ4rv3A43fZW6MB8GA1UdIwQYMBaAFMQZcP7126L2UrXCjjBssMmckHgY
MA0GCSqGSIb3DQEBCwUAA4IBAQBeKsF0imygDcarMIUudG1LuGNTwN2ZL91A63Ix
nOoF0paTYkeGi4B7cEeP4jlp7XbfbxSBoN3aDBVBiky5xe3Zp2Zy01bggr7HlqCz
NlXabMjj252Yagx1UoYuiUE5bn9Y3CXSTy/p05SA+7pPFahbBDayEzoYjTO3rPRK
f5H0MfhssqzfWPo/EQI7rIJ/2wmLBujGeeih/omIzJGu6vARFubFHa8hxqyC5FDo
GIHxRue6vSlLp3yHxNTf1ZhOkNP6hFmyTVC7LjMQ0E54JZfuNXI2mJPIEjASENuM
8IgfeIarOZ2bkT0zseBirP/C29glZ5SlTufkhxo5yBOs0PtE
-----END CERTIFICATE-----
