Certificate:
    Data:
        Version: 3 (0x2)
        Serial Number: 10735806336529667392 (0x94fd3efb7a3d1540)
    Signature Algorithm: sha256WithRSAEncryption
        Issuer: C=US, ST=CA, O=Puppy Bureaucracy, OU=Distributed Systems Department, CN=test.riemann.io
        Validity
            Not Before: Jul 13 21:51:30 2015 GMT
            Not After : Apr 27 21:51:30 2289 GMT
        Subject: C=US, ST=CA, L=San Francisco, O=Puppy Bureaucracy, OU=Riemann Clients Dept, CN=bark.riemann.io
        Subject Public Key Info:
            Public Key Algorithm: rsaEncryption
                Public-Key: (4096 bit)
                Modulus:
                    00:9b:ef:bd:1c:57:b3:4d:80:b1:cd:4a:9e:c3:2b:
                    d4:cb:e9:ee:60:57:39:65:1f:be:48:88:04:f0:61:
                    3f:69:be:16:5e:92:69:06:ef:d5:12:16:67:22:b8:
                    45:5f:5c:33:6f:96:cc:fd:84:96:e5:99:1b:c4:82:
                    4e:28:70:a8:5a:50:a1:82:86:17:9d:e2:a9:be:aa:
                    a2:7f:fa:72:1a:77:ef:54:2e:4e:36:3f:de:6e:05:
                    3d:84:6e:f3:19:d4:fc:5c:95:f9:42:79:23:05:e8:
                    66:6b:10:cb:0d:f4:70:51:93:48:5f:10:9e:e0:ab:
                    60:97:1e:a8:95:0f:a7:b2:9e:72:6b:48:d0:38:af:
                    38:3b:46:5a:60:90:de:9e:96:a3:bc:12:c8:43:58:
                    40:95:4c:70:d3:21:86:f4:96:86:f5:bd:45:0e:58:
                    d5:8c:f1:2f:10:ac:71:55:71:b7:1c:ba:55:b8:97:
                    65:17:35:f6:f4:03:56:88:41:61:59:dd:e0:7b:3e:
                    33:9c:05:88:ab:7c:f1:64:42:53:e5:7f:62:c5:c0:
                    8a:3e:f3:a9:03:a5:4a:65:73:21:44:d0:8d:4a:3b:
                    1c:61:77:0b:3a:1d:47:1d:48:e6:1b:c8:78:6c:d6:
                    4e:70:ca:f1:aa:55:41:f5:82:dc:fa:80:14:6c:93:
                    d6:60:c5:be:37:89:12:58:95:6d:ab:f1:c4:e1:5d:
                    39:e0:f2:35:64:86:c3:a7:96:ec:3e:24:34:b2:75:
                    10:fc:6d:20:e4:35:0c:e8:c1:51:7d:d7:16:9e:d6:
                    38:4e:99:8d:c6:6f:53:1e:33:11:82:84:78:a7:62:
                    db:48:01:99:dc:ff:53:2a:26:aa:98:51:f5:34:58:
                    3a:be:4e:66:7f:98:31:6b:1b:bc:8e:2d:13:4f:8c:
                    22:b8:f6:9a:05:38:a8:b2:81:d9:df:dc:2c:06:4b:
                    a6:cb:2e:ea:6f:c7:11:41:d6:48:76:10:59:38:32:
                    e3:2f:4c:4f:4f:a8:64:66:3c:42:8a:62:24:95:ce:
                    99:94:33:7f:03:5b:bf:85:52:3f:4c:1c:15:0b:15:
                    fa:a8:5d:45:6a:15:43:c7:b7:13:dc:d7:f2:6e:b9:
                    d3:79:16:48:12:b2:7f:d2:ae:e2:5f:02:58:76:51:
                    54:a9:75:40:37:2a:58:82:8f:97:9b:34:98:e4:0a:
                    85:b2:6c:e3:e0:14:d4:c8:b0:42:b7:20:d5:a9:78:
                    ec:20:11:e1:4c:75:89:a1:25:15:39:d6:03:3b:5a:
                    94:09:4a:c9:de:f8:8e:d0:cb:48:fa:0e:21:a9:8f:
                    a1:87:a6:59:3e:61:18:79:09:f5:0f:37:c4:e9:9a:
                    de:58:75
                Exponent: 65537 (0x10001)
        X509v3 extensions:
            X509v3 Basic Constraints: 
                CA:FALSE
            Netscape Comment: 
                OpenSSL Generated Certificate
            X509v3 Subject Key Identifier: 
                02:DB:75:30:39:15:E6:E1:E0:87:D7:06:F5:B2:C7:02:55:E8:E9:88
            X509v3 Authority Key Identifier: 
                keyid:C4:19:70:FE:F5:DB:A2:F6:52:B5:C2:8E:30:6C:B0:C9:9C:90:78:18

    Signature Algorithm: sha256WithRSAEncryption
         30:59:16:e7:ec:bd:06:99:2b:f4:de:8e:30:42:13:3e:5b:37:
         ad:36:d4:a0:42:d3:2c:0a:95:58:4c:9e:1c:3c:e1:e5:1b:a6:
         33:0b:b0:5e:a5:f7:bd:a3:ea:97:34:d1:04:83:54:a8:8c:21:
         f4:26:5b:9f:fc:cb:7d:9c:89:50:d3:6a:fc:59:2a:ba:dc:6a:
         d0:b4:a6:6f:f8:2a:75:02:32:f6:c4:86:e3:31:cf:6b:2e:4e:
         10:e9:9f:82:2a:9b:41:48:58:57:e9:93:fe:c6:d6:99:2c:74:
         42:a6:13:a7:d9:ea:14:1e:84:3c:24:23:e2:8a:67:6f:c9:ce:
         67:73:71:24:f3:36:e4:d6:f3:38:c5:a4:f2:ab:62:8e:21:97:
         a1:63:59:9d:95:7d:88:b1:7c:6f:49:c4:14:59:a0:e1:68:cb:
         e8:3d:a7:10:bd:63:7b:8a:44:c0:4a:dc:d2:ed:c3:e6:30:0a:
         2f:76:2a:8d:1e:63:80:10:42:97:e3:54:21:9a:2b:d2:1e:80:
         af:2c:5c:0e:3d:ba:37:0f:a8:13:6d:14:87:17:52:08:0a:99:
         bd:10:0c:57:6a:f8:a1:63:ab:90:76:44:63:e0:8d:46:09:57:
         15:4f:0f:e2:0c:39:43:8b:22:86:98:f5:3e:5b:a4:1f:1e:4b:
         40:ef:ad:04
-----BEGIN CERTIFICATE-----
MIIFATCCA+mgAwIBAgIJAJT9Pvt6PRVAMA0GCSqGSIb3DQEBCwUAMHkxCzAJBgNV
BAYTAlVTMQswCQYDVQQIDAJDQTEaMBgGA1UECgwRUHVwcHkgQnVyZWF1Y3JhY3kx
JzAlBgNVBAsMHkRpc3RyaWJ1dGVkIFN5c3RlbXMgRGVwYXJ0bWVudDEYMBYGA1UE
AwwPdGVzdC5yaWVtYW5uLmlvMCAXDTE1MDcxMzIxNTEzMFoYDzIyODkwNDI3MjE1
MTMwWjCBhzELMAkGA1UEBhMCVVMxCzAJBgNVBAgMAkNBMRYwFAYDVQQHDA1TYW4g
RnJhbmNpc2NvMRowGAYDVQQKDBFQdXBweSBCdXJlYXVjcmFjeTEdMBsGA1UECwwU
UmllbWFubiBDbGllbnRzIERlcHQxGDAWBgNVBAMMD2JhcmsucmllbWFubi5pbzCC
AiIwDQYJKoZIhvcNAQEBBQADggIPADCCAgoCggIBAJvvvRxXs02Asc1KnsMr1Mvp
7mBXOWUfvkiIBPBhP2m+Fl6SaQbv1RIWZyK4RV9cM2+WzP2EluWZG8SCTihwqFpQ
oYKGF53iqb6qon/6chp371QuTjY/3m4FPYRu8xnU/FyV+UJ5IwXoZmsQyw30cFGT
SF8QnuCrYJceqJUPp7KecmtI0DivODtGWmCQ3p6Wo7wSyENYQJVMcNMhhvSWhvW9
RQ5Y1YzxLxCscVVxtxy6VbiXZRc19vQDVohBYVnd4Hs+M5wFiKt88WRCU+V/YsXA
ij7zqQOlSmVzIUTQjUo7HGF3CzodRx1I5hvIeGzWTnDK8apVQfWC3PqAFGyT1mDF
vjeJEliVbavxxOFdOeDyNWSGw6eW7D4kNLJ1EPxtIOQ1DOjBUX3XFp7WOE6ZjcZv
Ux4zEYKEeKdi20gBmdz/UyomqphR9TRYOr5OZn+YMWsbvI4tE0+MIrj2mgU4qLKB
2d/cLAZLpssu6m/HEUHWSHYQWTgy4y9MT0+oZGY8QopiJJXOmZQzfwNbv4VSP0wc
FQsV+qhdRWoVQ8e3E9zX8m6503kWSBKyf9Ku4l8CWHZRVKl1QDcqWIKPl5s0mOQK
hbJs4+AU1MiwQrcg1al47CAR4Ux1iaElFTnWAztalAlKyd74jtDLSPoOIamPoYem
WT5hGHkJ9Q83xOma3lh1AgMBAAGjezB5MAkGA1UdEwQCMAAwLAYJYIZIAYb4QgEN
BB8WHU9wZW5TU0wgR2VuZXJhdGVkIENlcnRpZmljYXRlMB0GA1UdDgQWBBQC23Uw
ORXm4eCH1wb1sscCVejpiDAfBgNVHSMEGDAWgBTEGXD+9dui9lK1wo4wbLDJnJB4
GDANBgkqhkiG9w0BAQsFAAOCAQEAMFkW5+y9Bpkr9N6OMEITPls3rTbUoELTLAqV
WEyeHDzh5RumMwuwXqX3vaPqlzTRBINUqIwh9CZbn/zLfZyJUNNq/Fkqutxq0LSm
b/gqdQIy9sSG4zHPay5OEOmfgiqbQUhYV+mT/sbWmSx0QqYTp9nqFB6EPCQj4opn
b8nOZ3NxJPM25NbzOMWk8qtijiGXoWNZnZV9iLF8b0nEFFmg4WjL6D2nEL1je4pE
wErc0u3D5jAKL3YqjR5jgBBCl+NUIZor0h6AryxcDj26Nw+oE20UhxdSCAqZvRAM
V2r4oWOrkHZEY+CNRglXFU8P4gw5Q4sihpj1PlukHx5LQO+tBA==
-----END CERTIFICATE-----
