Certificate:
    Data:
        Version: 3 (0x2)
        Serial Number: 10735806336529667390 (0x94fd3efb7a3d153e)
    Signature Algorithm: sha256WithRSAEncryption
        Issuer: C=US, ST=CA, O=Puppy Bureaucracy, OU=Distributed Systems Department, CN=test.riemann.io
        Validity
            Not Before: Jul 13 21:41:19 2015 GMT
            Not After : Apr 27 21:41:19 2289 GMT
        Subject: C=US, ST=CA, O=Puppy Bureaucracy, OU=Distributed Systems Department, CN=test.riemann.io
        Subject Public Key Info:
            Public Key Algorithm: rsaEncryption
                Public-Key: (2048 bit)
                Modulus:
                    00:b0:67:23:f1:0a:db:bf:b9:32:ef:6d:7c:01:d8:
                    3b:b0:58:cd:02:d4:c2:01:40:81:a0:d6:bf:a7:57:
                    09:88:56:cb:95:89:2e:18:e0:ae:a1:b9:70:8d:aa:
                    d7:35:4d:1b:54:0b:56:9a:3f:b9:b1:d9:18:e2:4e:
                    41:60:00:02:2f:df:bb:80:c2:9b:cf:fb:eb:13:78:
                    28:e9:0e:42:cc:b3:21:ef:f3:de:3e:19:ce:a3:ac:
                    f2:67:78:98:bf:fb:e0:a3:cf:bf:f7:0c:dd:35:3f:
                    39:27:be:12:ce:19:66:0a:a2:55:84:7c:14:4a:cc:
                    f5:28:69:74:02:e5:c9:ee:f3:76:df:38:e3:04:fd:
                    08:99:e8:d1:d6:fc:7f:f7:e9:23:db:23:79:50:1d:
                    67:0a:7c:3a:66:8d:89:29:79:fd:c7:1b:00:e6:09:
                    83:a1:e5:67:77:dc:58:be:69:9d:7a:64:a7:d3:cc:
                    e6:d6:32:76:37:e5:5f:50:69:8c:6b:3c:69:33:0a:
                    f2:68:bb:0d:f2:16:48:82:c6:11:9d:da:36:7d:3a:
                    ba:0d:3b:3c:1d:72:3e:bf:fa:bb:fe:78:3e:b0:7a:
                    c8:15:1b:4f:2a:99:0c:8f:e8:20:5b:7e:6e:02:81:
                    48:d4:c4:70:d3:ea:c7:8c:51:c3:18:25:ce:5c:a5:
                    73:b3
                Exponent: 65537 (0x10001)
        X509v3 extensions:
            X509v3 Subject Key Identifier: 
                C4:19:70:FE:F5:DB:A2:F6:52:B5:C2:8E:30:6C:B0:C9:9C:90:78:18
            X509v3 Authority Key Identifier: 
                keyid:C4:19:70:FE:F5:DB:A2:F6:52:B5:C2:8E:30:6C:B0:C9:9C:90:78:18

            X509v3 Basic Constraints: 
                CA:TRUE
    Signature Algorithm: sha256WithRSAEncryption
         af:59:52:c1:d8:96:da:15:b1:fc:15:50:4a:72:e1:eb:ac:07:
         a9:e1:d4:39:29:ad:81:4b:f2:41:8a:39:d4:ce:96:0e:6a:7d:
         14:e0:98:a9:d5:3e:49:a5:e1:ed:2d:3c:bf:a2:77:44:ed:de:
         80:30:4d:cb:0a:0f:1c:be:50:f1:55:49:e1:af:39:ca:6f:1c:
         de:64:9e:b0:6d:57:47:48:1d:d3:a7:11:3c:6f:05:55:2b:42:
         22:58:07:a2:4c:04:51:e6:d7:b6:dc:29:2f:f7:d0:ba:ee:36:
         27:ea:2a:45:c1:55:d7:19:d4:5c:9a:a8:8d:2e:cf:10:9f:4e:
         07:e0:11:04:f3:98:53:6a:52:41:89:6b:9f:92:a7:c7:ce:24:
         dc:de:c5:26:38:9c:03:c4:52:9d:a1:c4:7d:6d:b8:8f:6c:f3:
         cb:20:e4:8a:68:00:4a:e1:e0:12:dd:e3:e2:47:af:3d:fb:31:
         bc:bc:56:51:b5:79:9e:3a:87:11:e2:92:51:80:81:fa:72:07:
         46:5e:dc:db:8a:e0:e9:39:d6:05:c7:ea:f8:ca:24:c9:c5:76:
         4a:98:7c:f7:cd:52:d3:5f:6a:ea:5c:3a:5b:74:82:93:a6:eb:
         a1:f4:18:22:e2:cf:83:74:18:93:e4:3f:19:f4:b9:8c:53:bd:
         4c:ee:3c:62
-----BEGIN CERTIFICATE-----
MIIDxzCCAq+gAwIBAgIJAJT9Pvt6PRU+MA0GCSqGSIb3DQEBCwUAMHkxCzAJBgNV
BAYTAlVTMQswCQYDVQQIDAJDQTEaMBgGA1UECgwRUHVwcHkgQnVyZWF1Y3JhY3kx
JzAlBgNVBAsMHkRpc3RyaWJ1dGVkIFN5c3RlbXMgRGVwYXJ0bWVudDEYMBYGA1UE
AwwPdGVzdC5yaWVtYW5uLmlvMCAXDTE1MDcxMzIxNDExOVoYDzIyODkwNDI3MjE0
MTE5WjB5MQswCQYDVQQGEwJVUzELMAkGA1UECAwCQ0ExGjAYBgNVBAoMEVB1cHB5
IEJ1cmVhdWNyYWN5MScwJQYDVQQLDB5EaXN0cmlidXRlZCBTeXN0ZW1zIERlcGFy
dG1lbnQxGDAWBgNVBAMMD3Rlc3QucmllbWFubi5pbzCCASIwDQYJKoZIhvcNAQEB
BQADggEPADCCAQoCggEBALBnI/EK27+5Mu9tfAHYO7BYzQLUwgFAgaDWv6dXCYhW
y5WJLhjgrqG5cI2q1zVNG1QLVpo/ubHZGOJOQWAAAi/fu4DCm8/76xN4KOkOQsyz
Ie/z3j4ZzqOs8md4mL/74KPPv/cM3TU/OSe+Es4ZZgqiVYR8FErM9ShpdALlye7z
dt844wT9CJno0db8f/fpI9sjeVAdZwp8OmaNiSl5/ccbAOYJg6HlZ3fcWL5pnXpk
p9PM5tYydjflX1BpjGs8aTMK8mi7DfIWSILGEZ3aNn06ug07PB1yPr/6u/54PrB6
yBUbTyqZDI/oIFt+bgKBSNTEcNPqx4xRwxglzlylc7MCAwEAAaNQME4wHQYDVR0O
BBYEFMQZcP7126L2UrXCjjBssMmckHgYMB8GA1UdIwQYMBaAFMQZcP7126L2UrXC
jjBssMmckHgYMAwGA1UdEwQFMAMBAf8wDQYJKoZIhvcNAQELBQADggEBAK9ZUsHY
ltoVsfwVUEpy4eusB6nh1DkprYFL8kGKOdTOlg5qfRTgmKnVPkml4e0tPL+id0Tt
3oAwTcsKDxy+UPFVSeGvOcpvHN5knrBtV0dIHdOnETxvBVUrQiJYB6JMBFHm17bc
KS/30LruNifqKkXBVdcZ1FyaqI0uzxCfTgfgEQTzmFNqUkGJa5+Sp8fOJNzexSY4
nAPEUp2hxH1tuI9s88sg5IpoAErh4BLd4+JHrz37Mby8VlG1eZ46hxHiklGAgfpy
B0Ze3NuK4Ok51gXH6vjKJMnFdkqYfPfNUtNfaupcOlt0gpOm66H0GCLiz4N0GJPk
Pxn0uYxTvUzuPGI=
-----END CERTIFICATE-----
