Certificate:
    Data:
        Version: 3 (0x2)
        Serial Number: 17030965136099402757 (0xec5a248eaf446405)
    Signature Algorithm: sha1WithRSAEncryption
        Issuer: C=US, ST=Califorya, O=Riemann, OU=Test, CN=Riemann root CA
        Validity
            Not Before: May 30 19:02:15 2013 GMT
            Not After : May 29 19:02:15 2016 GMT
        Subject: C=US, ST=Califorya, O=Riemann, OU=Test, CN=Riemann root CA
        Subject Public Key Info:
            Public Key Algorithm: rsaEncryption
                Public-Key: (2048 bit)
                Modulus:
                    00:ab:68:f6:78:37:3f:38:dc:48:2b:82:33:7e:42:
                    41:52:91:44:ee:61:df:c0:52:be:10:e5:a3:24:ae:
                    e5:f0:4e:ae:54:4a:e8:d6:45:9c:db:86:bf:0d:97:
                    d9:d7:be:af:bd:25:bf:a3:0a:2f:f0:bd:9c:4c:50:
                    02:b7:6b:76:68:21:7c:be:fd:e4:d2:d6:3d:60:34:
                    a5:22:25:3d:c7:8d:02:f7:e0:2d:e3:1a:c9:f5:37:
                    5d:30:40:eb:d2:0d:35:56:92:d3:05:20:15:f8:ab:
                    fc:91:12:a2:7a:1a:a2:67:55:29:6f:63:81:98:8b:
                    6c:b3:65:95:ee:38:e5:ea:eb:50:13:a6:20:70:6b:
                    34:d4:df:a7:93:df:bb:fd:4a:d4:ff:7c:ca:61:a0:
                    a2:7b:d3:4f:19:8c:f8:e2:94:20:64:d2:b5:e2:f8:
                    c3:96:62:ca:c0:2e:51:1d:7a:a5:c8:a8:08:66:25:
                    35:6f:cf:66:8e:dd:6d:61:b2:68:37:f8:58:c5:32:
                    2a:c6:5c:67:2f:1e:af:d5:71:55:07:fb:9a:d2:6d:
                    3a:28:96:01:5b:f4:df:03:ce:fb:0b:6e:d2:7b:f6:
                    27:92:b1:fd:85:73:3e:0e:69:4d:a8:81:f3:11:2d:
                    af:3b:c4:a4:dc:3c:05:ea:0c:fb:c7:78:b8:e3:7c:
                    09:55
                Exponent: 65537 (0x10001)
        X509v3 extensions:
            X509v3 Subject Key Identifier: 
                6E:C2:44:43:34:5C:1E:2E:86:D9:50:23:E9:4B:15:AB:9A:EC:FE:41
            X509v3 Authority Key Identifier: 
                keyid:6E:C2:44:43:34:5C:1E:2E:86:D9:50:23:E9:4B:15:AB:9A:EC:FE:41

            X509v3 Basic Constraints: 
                CA:TRUE
    Signature Algorithm: sha1WithRSAEncryption
         7a:40:a4:64:72:ca:f3:99:70:f7:f3:d4:f8:8e:2b:e0:0f:03:
         32:dd:f2:75:af:53:a9:da:eb:6b:d6:a3:ba:c6:35:c6:46:a0:
         5c:81:52:df:d8:66:9e:4e:2f:e0:ac:1c:50:35:2d:9a:f9:9c:
         5f:6f:96:84:f6:e6:7f:c8:49:42:fb:c5:14:0c:7a:96:ef:3d:
         49:6e:7f:58:6d:d0:f3:8b:46:bc:c8:fa:62:05:04:f8:a8:76:
         3a:fe:e3:9f:eb:af:f8:27:36:ff:05:25:8b:c8:27:a3:20:a7:
         3a:29:cc:f7:ae:d3:13:02:0f:ed:d5:3c:d3:9f:4c:c6:2d:35:
         20:d6:b1:01:2c:3b:60:63:60:b8:f3:ed:4f:3f:4a:fc:73:9d:
         1e:6e:b8:7c:a3:55:9b:64:b2:37:2f:27:d7:ca:2c:72:f8:d1:
         c9:c3:05:e0:41:13:a6:2c:91:22:2f:f7:2d:bf:7a:3a:e8:05:
         8f:98:e8:3d:e9:bc:75:c7:7b:8b:ca:70:85:b6:83:38:3f:19:
         09:2c:89:93:ee:16:36:6a:87:f5:34:78:b9:ca:fb:b5:b7:31:
         5f:b1:a4:0a:70:77:1e:6d:a7:6a:a4:64:e7:86:47:a2:1d:65:
         9c:ff:cb:3f:d4:b3:b3:4c:43:13:68:06:69:bf:3a:49:84:59:
         36:50:ab:b9
-----BEGIN CERTIFICATE-----
MIIDizCCAnOgAwIBAgIJAOxaJI6vRGQFMA0GCSqGSIb3DQEBBQUAMFwxCzAJBgNV
BAYTAlVTMRIwEAYDVQQIDAlDYWxpZm9yeWExEDAOBgNVBAoMB1JpZW1hbm4xDTAL
BgNVBAsMBFRlc3QxGDAWBgNVBAMMD1JpZW1hbm4gcm9vdCBDQTAeFw0xMzA1MzAx
OTAyMTVaFw0xNjA1MjkxOTAyMTVaMFwxCzAJBgNVBAYTAlVTMRIwEAYDVQQIDAlD
YWxpZm9yeWExEDAOBgNVBAoMB1JpZW1hbm4xDTALBgNVBAsMBFRlc3QxGDAWBgNV
BAMMD1JpZW1hbm4gcm9vdCBDQTCCASIwDQYJKoZIhvcNAQEBBQADggEPADCCAQoC
ggEBAKto9ng3PzjcSCuCM35CQVKRRO5h38BSvhDloySu5fBOrlRK6NZFnNuGvw2X
2de+r70lv6MKL/C9nExQArdrdmghfL795NLWPWA0pSIlPceNAvfgLeMayfU3XTBA
69INNVaS0wUgFfir/JESonoaomdVKW9jgZiLbLNlle445errUBOmIHBrNNTfp5Pf
u/1K1P98ymGgonvTTxmM+OKUIGTSteL4w5ZiysAuUR16pcioCGYlNW/PZo7dbWGy
aDf4WMUyKsZcZy8er9VxVQf7mtJtOiiWAVv03wPO+wtu0nv2J5Kx/YVzPg5pTaiB
8xEtrzvEpNw8BeoM+8d4uON8CVUCAwEAAaNQME4wHQYDVR0OBBYEFG7CREM0XB4u
htlQI+lLFaua7P5BMB8GA1UdIwQYMBaAFG7CREM0XB4uhtlQI+lLFaua7P5BMAwG
A1UdEwQFMAMBAf8wDQYJKoZIhvcNAQEFBQADggEBAHpApGRyyvOZcPfz1PiOK+AP
AzLd8nWvU6na62vWo7rGNcZGoFyBUt/YZp5OL+CsHFA1LZr5nF9vloT25n/ISUL7
xRQMepbvPUluf1ht0POLRrzI+mIFBPiodjr+45/rr/gnNv8FJYvIJ6MgpzopzPeu
0xMCD+3VPNOfTMYtNSDWsQEsO2BjYLjz7U8/SvxznR5uuHyjVZtksjcvJ9fKLHL4
0cnDBeBBE6YskSIv9y2/ejroBY+Y6D3pvHXHe4vKcIW2gzg/GQksiZPuFjZqh/U0
eLnK+7W3MV+xpApwdx5tp2qkZOeGR6IdZZz/yz/Us7NMQxNoBmm/OkmEWTZQq7k=
-----END CERTIFICATE-----
